; ModuleID = '27/437.c'
source_filename = "27/437.c"
target datalayout = "e-m:e-p270:32:32-p271:32:32-p272:64:64-i64:64-f80:128-n8:16:32:64-S128"
target triple = "x86_64-pc-linux-gnu"

@.str = private unnamed_addr constant [3 x i8] c"%d\00", align 1
@.str.1 = private unnamed_addr constant [10 x i8] c"%lf%lf%lf\00", align 1
@.str.2 = private unnamed_addr constant [19 x i8] c"x1=%.5lf;x2=%.5lf\0A\00", align 1
@.str.3 = private unnamed_addr constant [33 x i8] c"x1=%.5lf+%.5lfi;x2=%.5lf-%.5lfi\0A\00", align 1
@.str.4 = private unnamed_addr constant [13 x i8] c"x1=x2=%.5lf\0A\00", align 1

; Function Attrs: noinline nounwind uwtable
define dso_local i32 @main() #0 {
  %1 = alloca i32, align 4
  %2 = alloca i32, align 4
  %3 = alloca i32, align 4
  %4 = alloca double, align 8
  %5 = alloca double, align 8
  %6 = alloca double, align 8
  %7 = alloca double, align 8
  %8 = alloca double, align 8
  %9 = alloca double, align 8
  store i32 0, i32* %1, align 4
  %10 = call i32 (i8*, ...) @__isoc99_scanf(i8* getelementptr inbounds ([3 x i8], [3 x i8]* @.str, i64 0, i64 0), i32* %2)
  store i32 0, i32* %3, align 4
  br label %11

11:                                               ; preds = %71, %0
  %12 = load i32, i32* %3, align 4
  %13 = load i32, i32* %2, align 4
  %14 = icmp slt i32 %12, %13
  br i1 %14, label %15, label %74

15:                                               ; preds = %11
  %16 = call i32 (i8*, ...) @__isoc99_scanf(i8* getelementptr inbounds ([10 x i8], [10 x i8]* @.str.1, i64 0, i64 0), double* %4, double* %5, double* %6)
  %17 = load double, double* %5, align 8
  %18 = load double, double* %5, align 8
  %19 = fmul double %17, %18
  %20 = load double, double* %4, align 8
  %21 = fmul double 4.000000e+00, %20
  %22 = load double, double* %6, align 8
  %23 = fmul double %21, %22
  %24 = fsub double %19, %23
  store double %24, double* %7, align 8
  %25 = load double, double* %5, align 8
  %26 = fmul double -1.000000e+00, %25
  %27 = load double, double* %4, align 8
  %28 = fmul double 2.000000e+00, %27
  %29 = fdiv double %26, %28
  store double %29, double* %8, align 8
  %30 = load double, double* %7, align 8
  %31 = fcmp ogt double %30, 0.000000e+00
  br i1 %31, label %32, label %45

32:                                               ; preds = %15
  %33 = load double, double* %7, align 8
  %34 = call double @sqrt(double %33) #3
  %35 = load double, double* %4, align 8
  %36 = fmul double 2.000000e+00, %35
  %37 = fdiv double %34, %36
  store double %37, double* %9, align 8
  %38 = load double, double* %8, align 8
  %39 = load double, double* %9, align 8
  %40 = fadd double %38, %39
  %41 = load double, double* %8, align 8
  %42 = load double, double* %9, align 8
  %43 = fsub double %41, %42
  %44 = call i32 (i8*, ...) @printf(i8* getelementptr inbounds ([19 x i8], [19 x i8]* @.str.2, i64 0, i64 0), double %40, double %43)
  br label %70

45:                                               ; preds = %15
  %46 = load double, double* %7, align 8
  %47 = fcmp olt double %46, 0.000000e+00
  br i1 %47, label %48, label %66

48:                                               ; preds = %45
  %49 = load double, double* %7, align 8
  %50 = fmul double -1.000000e+00, %49
  %51 = call double @sqrt(double %50) #3
  %52 = load double, double* %4, align 8
  %53 = fmul double 2.000000e+00, %52
  %54 = fdiv double %51, %53
  store double %54, double* %9, align 8
  %55 = load double, double* %8, align 8
  %56 = fcmp oeq double %55, 0.000000e+00
  br i1 %56, label %57, label %60

57:                                               ; preds = %48
  %58 = load double, double* %8, align 8
  %59 = fsub double 0.000000e+00, %58
  store double %59, double* %8, align 8
  br label %60

60:                                               ; preds = %57, %48
  %61 = load double, double* %8, align 8
  %62 = load double, double* %9, align 8
  %63 = load double, double* %8, align 8
  %64 = load double, double* %9, align 8
  %65 = call i32 (i8*, ...) @printf(i8* getelementptr inbounds ([33 x i8], [33 x i8]* @.str.3, i64 0, i64 0), double %61, double %62, double %63, double %64)
  br label %69

66:                                               ; preds = %45
  %67 = load double, double* %8, align 8
  %68 = call i32 (i8*, ...) @printf(i8* getelementptr inbounds ([13 x i8], [13 x i8]* @.str.4, i64 0, i64 0), double %67)
  br label %69

69:                                               ; preds = %66, %60
  br label %70

70:                                               ; preds = %69, %32
  br label %71

71:                                               ; preds = %70
  %72 = load i32, i32* %3, align 4
  %73 = add nsw i32 %72, 1
  store i32 %73, i32* %3, align 4
  br label %11

74:                                               ; preds = %11
  ret i32 0
}

declare dso_local i32 @__isoc99_scanf(i8*, ...) #1

; Function Attrs: nounwind
declare dso_local double @sqrt(double) #2

declare dso_local i32 @printf(i8*, ...) #1


!llvm.module.flags = !{!0}
!llvm.ident = !{!1}

!0 = !{i32 1, !"wchar_size", i32 4}
!1 = !{!"clang version 10.0.0-4ubuntu1 "}
